; Function Attrs: nounwind uwtable
define nonnull ptr @l___private_Std_Time_Zoned_TimeZone_0__Std_Time_decEqTimeZone____x40_Std_Time_Zoned_TimeZone___hyg_152____boxed(ptr noundef %0, ptr noundef %1) local_unnamed_addr #0 {
  %3 = getelementptr inbounds nuw i8, ptr %0, i64 8
  %4 = load ptr, ptr %3, align 8, !tbaa !4
  %5 = getelementptr inbounds nuw i8, ptr %0, i64 16
  %6 = load ptr, ptr %5, align 8, !tbaa !4
  %7 = getelementptr inbounds nuw i8, ptr %0, i64 24
  %8 = load ptr, ptr %7, align 8, !tbaa !4
  %9 = getelementptr i8, ptr %0, i64 32
  %.val25.i = load i8, ptr %9, align 1, !tbaa !13
  %10 = getelementptr inbounds nuw i8, ptr %1, i64 8
  %11 = load ptr, ptr %10, align 8, !tbaa !4
  %12 = getelementptr inbounds nuw i8, ptr %1, i64 16
  %13 = load ptr, ptr %12, align 8, !tbaa !4
  %14 = getelementptr inbounds nuw i8, ptr %1, i64 24
  %15 = load ptr, ptr %14, align 8, !tbaa !4
  %16 = getelementptr i8, ptr %1, i64 32
  %.val.i = load i8, ptr %16, align 1, !tbaa !13
  %17 = ptrtoint ptr %4 to i64
  %18 = ptrtoint ptr %11 to i64
  %19 = and i64 %17, 1
  %20 = and i64 %19, %18
  %or.cond.not.i.i.i = icmp eq i64 %20, 0
  br i1 %or.cond.not.i.i.i, label %lean_int_dec_eq.exit.i, label %21, !prof !15

21:                                               ; preds = %2
  %22 = icmp eq ptr %4, %11
  br i1 %22, label %24, label %l___private_Std_Time_Zoned_TimeZone_0__Std_Time_decEqTimeZone____x40_Std_Time_Zoned_TimeZone___hyg_152_.exit

lean_int_dec_eq.exit.i:                           ; preds = %2
  %23 = tail call zeroext i1 @lean_int_big_eq(ptr noundef %4, ptr noundef %11) #3
  br i1 %23, label %24, label %l___private_Std_Time_Zoned_TimeZone_0__Std_Time_decEqTimeZone____x40_Std_Time_Zoned_TimeZone___hyg_152_.exit

24:                                               ; preds = %lean_int_dec_eq.exit.i, %21
  %25 = icmp eq ptr %6, %13
  br i1 %25, label %lean_string_dec_eq.exit.thread29.i, label %26

26:                                               ; preds = %24
  %27 = getelementptr i8, ptr %6, i64 8
  %.val.i.i.i = load i64, ptr %27, align 8, !tbaa !11
  %28 = getelementptr i8, ptr %13, i64 8
  %.val7.i.i.i = load i64, ptr %28, align 8, !tbaa !11
  %29 = icmp eq i64 %.val.i.i.i, %.val7.i.i.i
  br i1 %29, label %lean_string_dec_eq.exit.i, label %l___private_Std_Time_Zoned_TimeZone_0__Std_Time_decEqTimeZone____x40_Std_Time_Zoned_TimeZone___hyg_152_.exit

lean_string_dec_eq.exit.i:                        ; preds = %26
  %30 = tail call zeroext i1 @lean_string_eq_cold(ptr noundef nonnull %6, ptr noundef nonnull %13) #3
  br i1 %30, label %lean_string_dec_eq.exit.thread29.i, label %l___private_Std_Time_Zoned_TimeZone_0__Std_Time_decEqTimeZone____x40_Std_Time_Zoned_TimeZone___hyg_152_.exit

lean_string_dec_eq.exit.thread29.i:               ; preds = %lean_string_dec_eq.exit.i, %24
  %31 = icmp eq ptr %8, %15
  br i1 %31, label %lean_string_dec_eq.exit28.thread30.i, label %32

32:                                               ; preds = %lean_string_dec_eq.exit.thread29.i
  %33 = getelementptr i8, ptr %8, i64 8
  %.val.i.i26.i = load i64, ptr %33, align 8, !tbaa !11
  %34 = getelementptr i8, ptr %15, i64 8
  %.val7.i.i27.i = load i64, ptr %34, align 8, !tbaa !11
  %35 = icmp eq i64 %.val.i.i26.i, %.val7.i.i27.i
  br i1 %35, label %lean_string_dec_eq.exit28.i, label %l___private_Std_Time_Zoned_TimeZone_0__Std_Time_decEqTimeZone____x40_Std_Time_Zoned_TimeZone___hyg_152_.exit

lean_string_dec_eq.exit28.i:                      ; preds = %32
  %36 = tail call zeroext i1 @lean_string_eq_cold(ptr noundef nonnull %8, ptr noundef nonnull %15) #3
  br i1 %36, label %lean_string_dec_eq.exit28.thread30.i, label %l___private_Std_Time_Zoned_TimeZone_0__Std_Time_decEqTimeZone____x40_Std_Time_Zoned_TimeZone___hyg_152_.exit

lean_string_dec_eq.exit28.thread30.i:             ; preds = %lean_string_dec_eq.exit28.i, %lean_string_dec_eq.exit.thread29.i
  %37 = icmp eq i8 %.val25.i, 0
  br i1 %37, label %38, label %l___private_Std_Time_Zoned_TimeZone_0__Std_Time_decEqTimeZone____x40_Std_Time_Zoned_TimeZone___hyg_152_.exit

38:                                               ; preds = %lean_string_dec_eq.exit28.thread30.i
  %39 = icmp eq i8 %.val.i, 0
  %..i = zext i1 %39 to i8
  br label %l___private_Std_Time_Zoned_TimeZone_0__Std_Time_decEqTimeZone____x40_Std_Time_Zoned_TimeZone___hyg_152_.exit

l___private_Std_Time_Zoned_TimeZone_0__Std_Time_decEqTimeZone____x40_Std_Time_Zoned_TimeZone___hyg_152_.exit: ; preds = %21, %lean_int_dec_eq.exit.i, %26, %lean_string_dec_eq.exit.i, %32, %lean_string_dec_eq.exit28.i, %lean_string_dec_eq.exit28.thread30.i, %38
  %.0.i = phi i8 [ 0, %lean_int_dec_eq.exit.i ], [ 0, %lean_string_dec_eq.exit.i ], [ 0, %lean_string_dec_eq.exit28.i ], [ %..i, %38 ], [ %.val.i, %lean_string_dec_eq.exit28.thread30.i ], [ 0, %26 ], [ 0, %32 ], [ 0, %21 ]
  %40 = ptrtoint ptr %1 to i64
  %41 = and i64 %40, 1
  %.not = icmp eq i64 %41, 0
  br i1 %.not, label %42, label %lean_dec.exit5

42:                                               ; preds = %l___private_Std_Time_Zoned_TimeZone_0__Std_Time_decEqTimeZone____x40_Std_Time_Zoned_TimeZone___hyg_152_.exit
  %43 = load i32, ptr %1, align 4, !tbaa !8
  %44 = icmp sgt i32 %43, 1
  br i1 %44, label %45, label %47, !prof !14

45:                                               ; preds = %42
  %46 = add nsw i32 %43, -1
  store i32 %46, ptr %1, align 4, !tbaa !8
  br label %lean_dec.exit5

47:                                               ; preds = %42
  %.not.i = icmp eq i32 %43, 0
  br i1 %.not.i, label %lean_dec.exit5, label %48

48:                                               ; preds = %47
  tail call void @lean_dec_ref_cold(ptr noundef nonnull %1) #3
  br label %lean_dec.exit5

lean_dec.exit5:                                   ; preds = %48, %47, %45, %l___private_Std_Time_Zoned_TimeZone_0__Std_Time_decEqTimeZone____x40_Std_Time_Zoned_TimeZone___hyg_152_.exit
  %49 = ptrtoint ptr %0 to i64
  %50 = and i64 %49, 1
  %.not8 = icmp eq i64 %50, 0
  br i1 %.not8, label %51, label %lean_dec.exit

51:                                               ; preds = %lean_dec.exit5
  %52 = load i32, ptr %0, align 4, !tbaa !8
  %53 = icmp sgt i32 %52, 1
  br i1 %53, label %54, label %56, !prof !14

54:                                               ; preds = %51
  %55 = add nsw i32 %52, -1
  store i32 %55, ptr %0, align 4, !tbaa !8
  br label %lean_dec.exit

56:                                               ; preds = %51
  %.not.i6 = icmp eq i32 %52, 0
  br i1 %.not.i6, label %lean_dec.exit, label %57

57:                                               ; preds = %56
  tail call void @lean_dec_ref_cold(ptr noundef nonnull %0) #3
  br label %lean_dec.exit

lean_dec.exit:                                    ; preds = %57, %56, %54, %lean_dec.exit5
  %58 = zext i8 %.0.i to i64
  %59 = shl nuw nsw i64 %58, 1
  %60 = or disjoint i64 %59, 1
  %61 = inttoptr i64 %60 to ptr
  ret ptr %61
}